target datalayout = "e-m:e-p270:32:32-p271:32:32-p272:64:64-i64:64-i128:128-f80:128-n8:16:32:64-S128"
target triple = "x86_64-pc-linux-gnu"

@hf_pcnfsd_comment = internal global i32 0, align 4
@hf_pcnfsd_status = internal global i32 0, align 4
@hf_pcnfsd_uid = internal global i32 0, align 4
@hf_pcnfsd_gid = internal global i32 0, align 4
@hf_pcnfsd_gids_count = internal global i32 0, align 4
@hf_pcnfsd_homedir = internal global i32 0, align 4
@hf_pcnfsd_def_umask = internal global i32 0, align 4
@ett_pcnfsd_gids = internal global i32 0, align 4
@.str.78 = private unnamed_addr constant [14 x i8] c"Group IDs: %d\00", align 1

; Function Attrs: null_pointer_is_valid sspstrong uwtable
define internal i32 @dissect_pcnfsd2_auth_reply(ptr noundef %0, ptr noundef %1, ptr noundef %2, ptr noundef %3) #0 {
  %5 = alloca ptr, align 8
  %6 = alloca ptr, align 8
  %7 = alloca ptr, align 8
  %8 = alloca ptr, align 8
  %9 = alloca i32, align 4
  %10 = alloca ptr, align 8
  %11 = alloca i32, align 4
  %12 = alloca i32, align 4
  store ptr %0, ptr %5, align 8
  store ptr %1, ptr %6, align 8
  store ptr %2, ptr %7, align 8
  store ptr %3, ptr %8, align 8
  call void @llvm.lifetime.start.p0(i64 4, ptr %9) #5
  call void @llvm.lifetime.start.p0(i64 8, ptr %10) #5
  call void @llvm.lifetime.start.p0(i64 4, ptr %11) #5
  call void @llvm.lifetime.start.p0(i64 4, ptr %12) #5
  store i32 0, ptr %12, align 4
  %13 = load ptr, ptr %5, align 8
  %14 = load ptr, ptr %7, align 8
  %15 = load i32, ptr @hf_pcnfsd_status, align 4
  %16 = load i32, ptr %12, align 4
  %17 = call i32 @dissect_rpc_uint32(ptr noundef %13, ptr noundef %14, i32 noundef %15, i32 noundef %16)
  store i32 %17, ptr %12, align 4
  %18 = load ptr, ptr %5, align 8
  %19 = load ptr, ptr %7, align 8
  %20 = load i32, ptr @hf_pcnfsd_uid, align 4
  %21 = load i32, ptr %12, align 4
  %22 = call i32 @dissect_rpc_uint32(ptr noundef %18, ptr noundef %19, i32 noundef %20, i32 noundef %21)
  store i32 %22, ptr %12, align 4
  %23 = load ptr, ptr %5, align 8
  %24 = load ptr, ptr %7, align 8
  %25 = load i32, ptr @hf_pcnfsd_gid, align 4
  %26 = load i32, ptr %12, align 4
  %27 = call i32 @dissect_rpc_uint32(ptr noundef %23, ptr noundef %24, i32 noundef %25, i32 noundef %26)
  store i32 %27, ptr %12, align 4
  %28 = load ptr, ptr %5, align 8
  %29 = load i32, ptr %12, align 4
  %30 = add i32 %29, 0
  %31 = call i32 @tvb_get_ntohl(ptr noundef %28, i32 noundef %30)
  store i32 %31, ptr %9, align 4
  %32 = load ptr, ptr %7, align 8
  %33 = load ptr, ptr %5, align 8
  %34 = load i32, ptr %12, align 4
  %35 = load i32, ptr %9, align 4
  %36 = mul i32 %35, 4
  %37 = add i32 4, %36
  %38 = load i32, ptr @ett_pcnfsd_gids, align 4
  %39 = load i32, ptr %9, align 4
  %40 = call ptr (ptr, ptr, i32, i32, i32, ptr, ptr, ...) @proto_tree_add_subtree_format(ptr noundef %32, ptr noundef %33, i32 noundef %34, i32 noundef %37, i32 noundef %38, ptr noundef null, ptr noundef @.str.78, i32 noundef %39)
  store ptr %40, ptr %10, align 8
  %41 = load ptr, ptr %10, align 8
  %42 = load i32, ptr @hf_pcnfsd_gids_count, align 4
  %43 = load ptr, ptr %5, align 8
  %44 = load i32, ptr %12, align 4
  %45 = call ptr @proto_tree_add_item(ptr noundef %41, i32 noundef %42, ptr noundef %43, i32 noundef %44, i32 noundef 4, i32 noundef 0)
  %46 = load i32, ptr %12, align 4
  %47 = add i32 %46, 4
  store i32 %47, ptr %12, align 4
  store i32 0, ptr %11, align 4
  br label %48

48:                                               ; preds = %58, %4
  %49 = load i32, ptr %11, align 4
  %50 = load i32, ptr %9, align 4
  %51 = icmp slt i32 %49, %50
  br i1 %51, label %52, label %61

52:                                               ; preds = %48
  %53 = load ptr, ptr %5, align 8
  %54 = load ptr, ptr %10, align 8
  %55 = load i32, ptr @hf_pcnfsd_gid, align 4
  %56 = load i32, ptr %12, align 4
  %57 = call i32 @dissect_rpc_uint32(ptr noundef %53, ptr noundef %54, i32 noundef %55, i32 noundef %56)
  store i32 %57, ptr %12, align 4
  br label %58

58:                                               ; preds = %52
  %59 = load i32, ptr %11, align 4
  %60 = add i32 %59, 1
  store i32 %60, ptr %11, align 4
  br label %48, !llvm.loop !6

61:                                               ; preds = %48
  %62 = load ptr, ptr %5, align 8
  %63 = load ptr, ptr %7, align 8
  %64 = load i32, ptr @hf_pcnfsd_homedir, align 4
  %65 = load i32, ptr %12, align 4
  %66 = call i32 @dissect_rpc_string(ptr noundef %62, ptr noundef %63, i32 noundef %64, i32 noundef %65, ptr noundef null)
  store i32 %66, ptr %12, align 4
  %67 = load ptr, ptr %5, align 8
  %68 = load ptr, ptr %7, align 8
  %69 = load i32, ptr @hf_pcnfsd_def_umask, align 4
  %70 = load i32, ptr %12, align 4
  %71 = call i32 @dissect_rpc_uint32(ptr noundef %67, ptr noundef %68, i32 noundef %69, i32 noundef %70)
  store i32 %71, ptr %12, align 4
  %72 = load ptr, ptr %5, align 8
  %73 = load ptr, ptr %7, align 8
  %74 = load i32, ptr @hf_pcnfsd_comment, align 4
  %75 = load i32, ptr %12, align 4
  %76 = call i32 @dissect_rpc_string(ptr noundef %72, ptr noundef %73, i32 noundef %74, i32 noundef %75, ptr noundef null)
  store i32 %76, ptr %12, align 4
  %77 = load i32, ptr %12, align 4
  call void @llvm.lifetime.end.p0(i64 4, ptr %12) #5
  call void @llvm.lifetime.end.p0(i64 4, ptr %11) #5
  call void @llvm.lifetime.end.p0(i64 8, ptr %10) #5
  call void @llvm.lifetime.end.p0(i64 4, ptr %9) #5
  ret i32 %77
}