; Function Attrs: null_pointer_is_valid sspstrong uwtable
define internal i32 @dissect_pcnfsd2_auth_reply(ptr noundef %0, ptr readnone captures(none) %1, ptr noundef %2, ptr readnone captures(none) %3) #0 {
  %5 = load i32, ptr @hf_pcnfsd_status, align 4
  %6 = tail call i32 @dissect_rpc_uint32(ptr noundef %0, ptr noundef %2, i32 noundef %5, i32 noundef 0)
  %7 = load i32, ptr @hf_pcnfsd_uid, align 4
  %8 = tail call i32 @dissect_rpc_uint32(ptr noundef %0, ptr noundef %2, i32 noundef %7, i32 noundef %6)
  %9 = load i32, ptr @hf_pcnfsd_gid, align 4
  %10 = tail call i32 @dissect_rpc_uint32(ptr noundef %0, ptr noundef %2, i32 noundef %9, i32 noundef %8)
  %11 = tail call i32 @tvb_get_ntohl(ptr noundef %0, i32 noundef %10)
  %12 = shl i32 %11, 2
  %13 = add i32 %12, 4
  %14 = load i32, ptr @ett_pcnfsd_gids, align 4
  %15 = tail call ptr (ptr, ptr, i32, i32, i32, ptr, ptr, ...) @proto_tree_add_subtree_format(ptr noundef %2, ptr noundef %0, i32 noundef %10, i32 noundef %13, i32 noundef %14, ptr noundef null, ptr noundef nonnull @.str.78, i32 noundef %11)
  %16 = load i32, ptr @hf_pcnfsd_gids_count, align 4
  %17 = tail call ptr @proto_tree_add_item(ptr noundef %15, i32 noundef %16, ptr noundef %0, i32 noundef %10, i32 noundef 4, i32 noundef 0)
  %18 = add i32 %10, 4
  %19 = icmp sgt i32 %11, 0
  br i1 %19, label %.lr.ph, label %._crit_edge

.lr.ph:                                           ; preds = %4, %.lr.ph
  %.037 = phi i32 [ %21, %.lr.ph ], [ %18, %4 ]
  %.03536 = phi i32 [ %22, %.lr.ph ], [ 0, %4 ]
  %20 = load i32, ptr @hf_pcnfsd_gid, align 4
  %21 = tail call i32 @dissect_rpc_uint32(ptr noundef %0, ptr noundef %15, i32 noundef %20, i32 noundef %.037)
  %22 = add nuw nsw i32 %.03536, 1
  %exitcond.not = icmp eq i32 %22, %11
  br i1 %exitcond.not, label %._crit_edge, label %.lr.ph, !llvm.loop !8

._crit_edge:                                      ; preds = %.lr.ph, %4
  %.0.lcssa = phi i32 [ %18, %4 ], [ %21, %.lr.ph ]
  %23 = load i32, ptr @hf_pcnfsd_homedir, align 4
  %24 = tail call i32 @dissect_rpc_string(ptr noundef %0, ptr noundef %2, i32 noundef %23, i32 noundef %.0.lcssa, ptr noundef null)
  %25 = load i32, ptr @hf_pcnfsd_def_umask, align 4
  %26 = tail call i32 @dissect_rpc_uint32(ptr noundef %0, ptr noundef %2, i32 noundef %25, i32 noundef %24)
  %27 = load i32, ptr @hf_pcnfsd_comment, align 4
  %28 = tail call i32 @dissect_rpc_string(ptr noundef %0, ptr noundef %2, i32 noundef %27, i32 noundef %26, ptr noundef null)
  ret i32 %28
}